target datalayout = "e-m:e-p270:32:32-p271:32:32-p272:64:64-i64:64-i128:128-f80:128-n8:16:32:64-S128"
target triple = "x86_64-pc-linux-gnu"

%struct._rtpstream_id = type { %struct._address, i16, %struct._address, i16, i32 }
%struct._address = type { i32, i32, ptr, ptr }

; Function Attrs: inlinehint nounwind null_pointer_is_valid sspstrong uwtable
define internal void @clear_address(ptr noundef %0) #4 {
  %2 = alloca ptr, align 8
  store ptr %0, ptr %2, align 8
  %3 = load ptr, ptr %2, align 8
  %4 = getelementptr inbounds nuw %struct._address, ptr %3, i32 0, i32 0
  store i32 0, ptr %4, align 8
  %5 = load ptr, ptr %2, align 8
  %6 = getelementptr inbounds nuw %struct._address, ptr %5, i32 0, i32 1
  store i32 0, ptr %6, align 4
  %7 = load ptr, ptr %2, align 8
  %8 = getelementptr inbounds nuw %struct._address, ptr %7, i32 0, i32 2
  store ptr null, ptr %8, align 8
  %9 = load ptr, ptr %2, align 8
  %10 = getelementptr inbounds nuw %struct._address, ptr %9, i32 0, i32 3
  store ptr null, ptr %10, align 8
  ret void
}

; Function Attrs: inlinehint null_pointer_is_valid sspstrong uwtable
define internal void @free_address_wmem(ptr noundef %0, ptr noundef %1) #1 {
  %3 = alloca ptr, align 8
  %4 = alloca ptr, align 8
  store ptr %0, ptr %3, align 8
  store ptr %1, ptr %4, align 8
  %5 = load ptr, ptr %4, align 8
  %6 = getelementptr inbounds nuw %struct._address, ptr %5, i32 0, i32 0
  %7 = load i32, ptr %6, align 8
  %8 = icmp ne i32 %7, 0
  br i1 %8, label %9, label %26

9:                                                ; preds = %2
  %10 = load ptr, ptr %4, align 8
  %11 = getelementptr inbounds nuw %struct._address, ptr %10, i32 0, i32 1
  %12 = load i32, ptr %11, align 4
  %13 = icmp sgt i32 %12, 0
  br i1 %13, label %14, label %26

14:                                               ; preds = %9
  %15 = load ptr, ptr %4, align 8
  %16 = getelementptr inbounds nuw %struct._address, ptr %15, i32 0, i32 3
  %17 = load ptr, ptr %16, align 8
  %18 = icmp ne ptr %17, null
  br i1 %18, label %19, label %26

19:                                               ; preds = %14
  br label %20

20:                                               ; preds = %19
  br label %21

21:                                               ; preds = %20
  %22 = load ptr, ptr %3, align 8
  %23 = load ptr, ptr %4, align 8
  %24 = getelementptr inbounds nuw %struct._address, ptr %23, i32 0, i32 3
  %25 = load ptr, ptr %24, align 8
  call void @wmem_free(ptr noundef %22, ptr noundef %25)
  br label %26

26:                                               ; preds = %21, %14, %9, %2
  %27 = load ptr, ptr %4, align 8
  call void @clear_address(ptr noundef %27)
  ret void
}

; Function Attrs: alwaysinline nounwind
define internal ptr @memset.inline(ptr %0, i32 %1, i64 %2) #2 {
  %4 = alloca ptr, align 8
  %5 = alloca i32, align 4
  %6 = alloca i64, align 8
  store ptr %0, ptr %4, align 8
  store i32 %1, ptr %5, align 4
  store i64 %2, ptr %6, align 8
  %7 = load ptr, ptr %4, align 8
  %8 = load i32, ptr %5, align 4
  %9 = load i64, ptr %6, align 8
  %10 = load ptr, ptr %4, align 8
  %11 = call i64 @llvm.objectsize.i64.p0(ptr %10, i1 false, i1 true, i1 true)
  %12 = call ptr @__memset_chk(ptr noundef %7, i32 noundef %8, i64 noundef %9, i64 noundef %11) #10
  ret ptr %12
}

; Function Attrs: inlinehint null_pointer_is_valid sspstrong uwtable
define internal void @free_address(ptr noundef %0) #1 {
  %2 = alloca ptr, align 8
  store ptr %0, ptr %2, align 8
  %3 = load ptr, ptr %2, align 8
  call void @free_address_wmem(ptr noundef null, ptr noundef %3)
  ret void
}

; Function Attrs: null_pointer_is_valid sspstrong uwtable
define hidden void @rtpstream_id_free(ptr noundef %0) #0 {
  %2 = alloca ptr, align 8
  store ptr %0, ptr %2, align 8
  %3 = load ptr, ptr %2, align 8
  %4 = getelementptr inbounds nuw %struct._rtpstream_id, ptr %3, i32 0, i32 0
  call void @free_address(ptr noundef %4)
  %5 = load ptr, ptr %2, align 8
  %6 = getelementptr inbounds nuw %struct._rtpstream_id, ptr %5, i32 0, i32 2
  call void @free_address(ptr noundef %6)
  %7 = load ptr, ptr %2, align 8
  %8 = call ptr @memset.inline(ptr noundef %7, i32 noundef 0, i64 noundef 64) #10
  ret void
}