; Function Attrs: null_pointer_is_valid sspstrong uwtable
define hidden void @rtpstream_id_free(ptr noundef initializes((8, 16)) %0) local_unnamed_addr #0 {
  %2 = load i32, ptr %0, align 8
  %.not.i.i = icmp eq i32 %2, 0
  br i1 %.not.i.i, label %free_address.exit, label %3

3:                                                ; preds = %1
  %4 = getelementptr inbounds nuw i8, ptr %0, i64 4
  %5 = load i32, ptr %4, align 4
  %6 = icmp sgt i32 %5, 0
  br i1 %6, label %7, label %free_address.exit

7:                                                ; preds = %3
  %8 = getelementptr inbounds nuw i8, ptr %0, i64 16
  %9 = load ptr, ptr %8, align 8
  %.not6.i.i = icmp eq ptr %9, null
  br i1 %.not6.i.i, label %free_address.exit, label %10

10:                                               ; preds = %7
  tail call void @wmem_free(ptr noundef null, ptr noundef nonnull %9)
  br label %free_address.exit

free_address.exit:                                ; preds = %1, %3, %7, %10
  tail call void @llvm.memset.p0.i64(ptr noundef align 8 dereferenceable(24) %0, i8 0, i64 24, i1 false)
  %11 = getelementptr inbounds nuw i8, ptr %0, i64 32
  %12 = load i32, ptr %11, align 8
  %.not.i.i3 = icmp eq i32 %12, 0
  br i1 %.not.i.i3, label %free_address.exit5, label %13

13:                                               ; preds = %free_address.exit
  %14 = getelementptr inbounds nuw i8, ptr %0, i64 36
  %15 = load i32, ptr %14, align 4
  %16 = icmp sgt i32 %15, 0
  br i1 %16, label %17, label %free_address.exit5

17:                                               ; preds = %13
  %18 = getelementptr inbounds nuw i8, ptr %0, i64 48
  %19 = load ptr, ptr %18, align 8
  %.not6.i.i4 = icmp eq ptr %19, null
  br i1 %.not6.i.i4, label %free_address.exit5, label %20

20:                                               ; preds = %17
  tail call void @wmem_free(ptr noundef null, ptr noundef nonnull %19)
  br label %free_address.exit5

free_address.exit5:                               ; preds = %free_address.exit, %13, %17, %20
  tail call void @llvm.memset.p0.i64(ptr noundef align 1 dereferenceable(64) %0, i8 noundef 0, i64 noundef 64, i1 noundef false) #9
  ret void
}